target datalayout = "e-m:e-p270:32:32-p271:32:32-p272:64:64-i64:64-i128:128-f80:128-n8:16:32:64-S128"
target triple = "x86_64-pc-linux-gnu"

%struct.CodedBitstreamContext = type { ptr, ptr, ptr, ptr, i32, i32, i32, ptr, ptr, ptr, ptr, i64 }
%struct.H264RawNALUnitHeader = type { i8, i8, i8, i8 }

@.str.53 = private unnamed_addr constant [19 x i8] c"forbidden_zero_bit\00", align 1
@.str.54 = private unnamed_addr constant [12 x i8] c"nal_ref_idc\00", align 1
@.str.55 = private unnamed_addr constant [14 x i8] c"nal_unit_type\00", align 1
@.str.56 = private unnamed_addr constant [27 x i8] c"Invalid NAL unit type %d.\0A\00", align 1
@.str.57 = private unnamed_addr constant [19 x i8] c"svc_extension_flag\00", align 1
@.str.58 = private unnamed_addr constant [22 x i8] c"avc_3d_extension_flag\00", align 1
@.str.59 = private unnamed_addr constant [20 x i8] c"SVC not supported.\0A\00", align 1
@.str.60 = private unnamed_addr constant [22 x i8] c"3DAVC not supported.\0A\00", align 1
@.str.61 = private unnamed_addr constant [20 x i8] c"MVC not supported.\0A\00", align 1

; Function Attrs: nounwind uwtable
define internal i32 @cbs_h264_write_nal_unit_header(ptr noundef %0, ptr noundef %1, ptr noundef %2, i32 noundef %3) #0 {
  %5 = alloca i32, align 4
  %6 = alloca ptr, align 8
  %7 = alloca ptr, align 8
  %8 = alloca ptr, align 8
  %9 = alloca i32, align 4
  %10 = alloca i32, align 4
  %11 = alloca i32, align 4
  %12 = alloca i32, align 4
  %13 = alloca i32, align 4
  %14 = alloca i32, align 4
  %15 = alloca i32, align 4
  %16 = alloca i32, align 4
  %17 = alloca i32, align 4
  store ptr %0, ptr %6, align 8, !tbaa !4
  store ptr %1, ptr %7, align 8, !tbaa !70
  store ptr %2, ptr %8, align 8, !tbaa !74
  store i32 %3, ptr %9, align 4, !tbaa !11
  call void @llvm.lifetime.start.p0(i64 4, ptr %10) #11
  br label %18

18:                                               ; preds = %4
  call void @llvm.lifetime.start.p0(i64 4, ptr %11) #11
  store i32 0, ptr %11, align 4, !tbaa !11
  br label %19

19:                                               ; preds = %18
  call void @llvm.lifetime.start.p0(i64 4, ptr %12) #11
  %20 = load i32, ptr %11, align 4, !tbaa !11
  store i32 %20, ptr %12, align 4, !tbaa !11
  br label %21

21:                                               ; preds = %19
  %22 = load ptr, ptr %6, align 8, !tbaa !4
  %23 = load ptr, ptr %7, align 8, !tbaa !70
  %24 = load i32, ptr %12, align 4, !tbaa !11
  %25 = call i32 @ff_cbs_write_unsigned(ptr noundef %22, ptr noundef %23, i32 noundef 1, ptr noundef @.str.53, ptr noundef null, i32 noundef %24, i32 noundef 0, i32 noundef 0)
  store i32 %25, ptr %10, align 4, !tbaa !11
  %26 = load i32, ptr %10, align 4, !tbaa !11
  %27 = icmp slt i32 %26, 0
  br i1 %27, label %28, label %30

28:                                               ; preds = %21
  %29 = load i32, ptr %10, align 4, !tbaa !11
  store i32 %29, ptr %5, align 4
  store i32 1, ptr %13, align 4
  br label %33

30:                                               ; preds = %21
  br label %31

31:                                               ; preds = %30
  br label %32

32:                                               ; preds = %31
  store i32 0, ptr %13, align 4
  br label %33

33:                                               ; preds = %32, %28
  call void @llvm.lifetime.end.p0(i64 4, ptr %12) #11
  %34 = load i32, ptr %13, align 4
  switch i32 %34, label %38 [
    i32 0, label %35
  ]

35:                                               ; preds = %33
  br label %36

36:                                               ; preds = %35
  br label %37

37:                                               ; preds = %36
  store i32 0, ptr %13, align 4
  br label %38

38:                                               ; preds = %37, %33
  call void @llvm.lifetime.end.p0(i64 4, ptr %11) #11
  %39 = load i32, ptr %13, align 4
  switch i32 %39, label %196 [
    i32 0, label %40
  ]

40:                                               ; preds = %38
  br label %41

41:                                               ; preds = %40
  br label %42

42:                                               ; preds = %41
  br label %43

43:                                               ; preds = %42
  call void @llvm.lifetime.start.p0(i64 4, ptr %14) #11
  %44 = load ptr, ptr %8, align 8, !tbaa !74
  %45 = getelementptr inbounds nuw %struct.H264RawNALUnitHeader, ptr %44, i32 0, i32 0
  %46 = load i8, ptr %45, align 1, !tbaa !76
  %47 = zext i8 %46 to i32
  store i32 %47, ptr %14, align 4, !tbaa !11
  br label %48

48:                                               ; preds = %43
  %49 = load ptr, ptr %6, align 8, !tbaa !4
  %50 = load ptr, ptr %7, align 8, !tbaa !70
  %51 = load i32, ptr %14, align 4, !tbaa !11
  %52 = call i32 @ff_cbs_write_simple_unsigned(ptr noundef %49, ptr noundef %50, i32 noundef 2, ptr noundef @.str.54, i32 noundef %51)
  store i32 %52, ptr %10, align 4, !tbaa !11
  %53 = load i32, ptr %10, align 4, !tbaa !11
  %54 = icmp slt i32 %53, 0
  br i1 %54, label %55, label %57

55:                                               ; preds = %48
  %56 = load i32, ptr %10, align 4, !tbaa !11
  store i32 %56, ptr %5, align 4
  store i32 1, ptr %13, align 4
  br label %60

57:                                               ; preds = %48
  br label %58

58:                                               ; preds = %57
  br label %59

59:                                               ; preds = %58
  store i32 0, ptr %13, align 4
  br label %60

60:                                               ; preds = %59, %55
  call void @llvm.lifetime.end.p0(i64 4, ptr %14) #11
  %61 = load i32, ptr %13, align 4
  switch i32 %61, label %196 [
    i32 0, label %62
  ]

62:                                               ; preds = %60
  br label %63

63:                                               ; preds = %62
  br label %64

64:                                               ; preds = %63
  br label %65

65:                                               ; preds = %64
  call void @llvm.lifetime.start.p0(i64 4, ptr %15) #11
  %66 = load ptr, ptr %8, align 8, !tbaa !74
  %67 = getelementptr inbounds nuw %struct.H264RawNALUnitHeader, ptr %66, i32 0, i32 1
  %68 = load i8, ptr %67, align 1, !tbaa !320
  %69 = zext i8 %68 to i32
  store i32 %69, ptr %15, align 4, !tbaa !11
  br label %70

70:                                               ; preds = %65
  %71 = load ptr, ptr %6, align 8, !tbaa !4
  %72 = load ptr, ptr %7, align 8, !tbaa !70
  %73 = load i32, ptr %15, align 4, !tbaa !11
  %74 = call i32 @ff_cbs_write_simple_unsigned(ptr noundef %71, ptr noundef %72, i32 noundef 5, ptr noundef @.str.55, i32 noundef %73)
  store i32 %74, ptr %10, align 4, !tbaa !11
  %75 = load i32, ptr %10, align 4, !tbaa !11
  %76 = icmp slt i32 %75, 0
  br i1 %76, label %77, label %79

77:                                               ; preds = %70
  %78 = load i32, ptr %10, align 4, !tbaa !11
  store i32 %78, ptr %5, align 4
  store i32 1, ptr %13, align 4
  br label %82

79:                                               ; preds = %70
  br label %80

80:                                               ; preds = %79
  br label %81

81:                                               ; preds = %80
  store i32 0, ptr %13, align 4
  br label %82

82:                                               ; preds = %81, %77
  call void @llvm.lifetime.end.p0(i64 4, ptr %15) #11
  %83 = load i32, ptr %13, align 4
  switch i32 %83, label %196 [
    i32 0, label %84
  ]

84:                                               ; preds = %82
  br label %85

85:                                               ; preds = %84
  br label %86

86:                                               ; preds = %85
  %87 = load ptr, ptr %8, align 8, !tbaa !74
  %88 = getelementptr inbounds nuw %struct.H264RawNALUnitHeader, ptr %87, i32 0, i32 1
  %89 = load i8, ptr %88, align 1, !tbaa !320
  %90 = zext i8 %89 to i32
  %91 = shl i32 1, %90
  %92 = load i32, ptr %9, align 4, !tbaa !11
  %93 = and i32 %91, %92
  %94 = icmp ne i32 %93, 0
  br i1 %94, label %103, label %95

95:                                               ; preds = %86
  %96 = load ptr, ptr %6, align 8, !tbaa !4
  %97 = getelementptr inbounds nuw %struct.CodedBitstreamContext, ptr %96, i32 0, i32 0
  %98 = load ptr, ptr %97, align 8, !tbaa !38
  %99 = load ptr, ptr %8, align 8, !tbaa !74
  %100 = getelementptr inbounds nuw %struct.H264RawNALUnitHeader, ptr %99, i32 0, i32 1
  %101 = load i8, ptr %100, align 1, !tbaa !320
  %102 = zext i8 %101 to i32
  call void (ptr, i32, ptr, ...) @av_log(ptr noundef %98, i32 noundef 16, ptr noundef @.str.56, i32 noundef %102)
  store i32 -1094995529, ptr %5, align 4
  store i32 1, ptr %13, align 4
  br label %196

103:                                              ; preds = %86
  %104 = load ptr, ptr %8, align 8, !tbaa !74
  %105 = getelementptr inbounds nuw %struct.H264RawNALUnitHeader, ptr %104, i32 0, i32 1
  %106 = load i8, ptr %105, align 1, !tbaa !320
  %107 = zext i8 %106 to i32
  %108 = icmp eq i32 %107, 14
  br i1 %108, label %121, label %109

109:                                              ; preds = %103
  %110 = load ptr, ptr %8, align 8, !tbaa !74
  %111 = getelementptr inbounds nuw %struct.H264RawNALUnitHeader, ptr %110, i32 0, i32 1
  %112 = load i8, ptr %111, align 1, !tbaa !320
  %113 = zext i8 %112 to i32
  %114 = icmp eq i32 %113, 20
  br i1 %114, label %121, label %115

115:                                              ; preds = %109
  %116 = load ptr, ptr %8, align 8, !tbaa !74
  %117 = getelementptr inbounds nuw %struct.H264RawNALUnitHeader, ptr %116, i32 0, i32 1
  %118 = load i8, ptr %117, align 1, !tbaa !320
  %119 = zext i8 %118 to i32
  %120 = icmp eq i32 %119, 21
  br i1 %120, label %121, label %195

121:                                              ; preds = %115, %109, %103
  %122 = load ptr, ptr %8, align 8, !tbaa !74
  %123 = getelementptr inbounds nuw %struct.H264RawNALUnitHeader, ptr %122, i32 0, i32 1
  %124 = load i8, ptr %123, align 1, !tbaa !320
  %125 = zext i8 %124 to i32
  %126 = icmp ne i32 %125, 21
  br i1 %126, label %127, label %150

127:                                              ; preds = %121
  br label %128

128:                                              ; preds = %127
  call void @llvm.lifetime.start.p0(i64 4, ptr %16) #11
  %129 = load ptr, ptr %8, align 8, !tbaa !74
  %130 = getelementptr inbounds nuw %struct.H264RawNALUnitHeader, ptr %129, i32 0, i32 2
  %131 = load i8, ptr %130, align 1, !tbaa !321
  %132 = zext i8 %131 to i32
  store i32 %132, ptr %16, align 4, !tbaa !11
  br label %133

133:                                              ; preds = %128
  %134 = load ptr, ptr %6, align 8, !tbaa !4
  %135 = load ptr, ptr %7, align 8, !tbaa !70
  %136 = load i32, ptr %16, align 4, !tbaa !11
  %137 = call i32 @ff_cbs_write_simple_unsigned(ptr noundef %134, ptr noundef %135, i32 noundef 1, ptr noundef @.str.57, i32 noundef %136)
  store i32 %137, ptr %10, align 4, !tbaa !11
  %138 = load i32, ptr %10, align 4, !tbaa !11
  %139 = icmp slt i32 %138, 0
  br i1 %139, label %140, label %142

140:                                              ; preds = %133
  %141 = load i32, ptr %10, align 4, !tbaa !11
  store i32 %141, ptr %5, align 4
  store i32 1, ptr %13, align 4
  br label %145

142:                                              ; preds = %133
  br label %143

143:                                              ; preds = %142
  br label %144

144:                                              ; preds = %143
  store i32 0, ptr %13, align 4
  br label %145

145:                                              ; preds = %144, %140
  call void @llvm.lifetime.end.p0(i64 4, ptr %16) #11
  %146 = load i32, ptr %13, align 4
  switch i32 %146, label %196 [
    i32 0, label %147
  ]

147:                                              ; preds = %145
  br label %148

148:                                              ; preds = %147
  br label %149

149:                                              ; preds = %148
  br label %173

150:                                              ; preds = %121
  br label %151

151:                                              ; preds = %150
  call void @llvm.lifetime.start.p0(i64 4, ptr %17) #11
  %152 = load ptr, ptr %8, align 8, !tbaa !74
  %153 = getelementptr inbounds nuw %struct.H264RawNALUnitHeader, ptr %152, i32 0, i32 3
  %154 = load i8, ptr %153, align 1, !tbaa !322
  %155 = zext i8 %154 to i32
  store i32 %155, ptr %17, align 4, !tbaa !11
  br label %156

156:                                              ; preds = %151
  %157 = load ptr, ptr %6, align 8, !tbaa !4
  %158 = load ptr, ptr %7, align 8, !tbaa !70
  %159 = load i32, ptr %17, align 4, !tbaa !11
  %160 = call i32 @ff_cbs_write_simple_unsigned(ptr noundef %157, ptr noundef %158, i32 noundef 1, ptr noundef @.str.58, i32 noundef %159)
  store i32 %160, ptr %10, align 4, !tbaa !11
  %161 = load i32, ptr %10, align 4, !tbaa !11
  %162 = icmp slt i32 %161, 0
  br i1 %162, label %163, label %165

163:                                              ; preds = %156
  %164 = load i32, ptr %10, align 4, !tbaa !11
  store i32 %164, ptr %5, align 4
  store i32 1, ptr %13, align 4
  br label %168

165:                                              ; preds = %156
  br label %166

166:                                              ; preds = %165
  br label %167

167:                                              ; preds = %166
  store i32 0, ptr %13, align 4
  br label %168

168:                                              ; preds = %167, %163
  call void @llvm.lifetime.end.p0(i64 4, ptr %17) #11
  %169 = load i32, ptr %13, align 4
  switch i32 %169, label %196 [
    i32 0, label %170
  ]

170:                                              ; preds = %168
  br label %171

171:                                              ; preds = %170
  br label %172

172:                                              ; preds = %171
  br label %173

173:                                              ; preds = %172, %149
  %174 = load ptr, ptr %8, align 8, !tbaa !74
  %175 = getelementptr inbounds nuw %struct.H264RawNALUnitHeader, ptr %174, i32 0, i32 2
  %176 = load i8, ptr %175, align 1, !tbaa !321
  %177 = icmp ne i8 %176, 0
  br i1 %177, label %178, label %182

178:                                              ; preds = %173
  %179 = load ptr, ptr %6, align 8, !tbaa !4
  %180 = getelementptr inbounds nuw %struct.CodedBitstreamContext, ptr %179, i32 0, i32 0
  %181 = load ptr, ptr %180, align 8, !tbaa !38
  call void (ptr, i32, ptr, ...) @av_log(ptr noundef %181, i32 noundef 16, ptr noundef @.str.59)
  store i32 -1163346256, ptr %5, align 4
  store i32 1, ptr %13, align 4
  br label %196

182:                                              ; preds = %173
  %183 = load ptr, ptr %8, align 8, !tbaa !74
  %184 = getelementptr inbounds nuw %struct.H264RawNALUnitHeader, ptr %183, i32 0, i32 3
  %185 = load i8, ptr %184, align 1, !tbaa !322
  %186 = icmp ne i8 %185, 0
  br i1 %186, label %187, label %191

187:                                              ; preds = %182
  %188 = load ptr, ptr %6, align 8, !tbaa !4
  %189 = getelementptr inbounds nuw %struct.CodedBitstreamContext, ptr %188, i32 0, i32 0
  %190 = load ptr, ptr %189, align 8, !tbaa !38
  call void (ptr, i32, ptr, ...) @av_log(ptr noundef %190, i32 noundef 16, ptr noundef @.str.60)
  store i32 -1163346256, ptr %5, align 4
  store i32 1, ptr %13, align 4
  br label %196

191:                                              ; preds = %182
  %192 = load ptr, ptr %6, align 8, !tbaa !4
  %193 = getelementptr inbounds nuw %struct.CodedBitstreamContext, ptr %192, i32 0, i32 0
  %194 = load ptr, ptr %193, align 8, !tbaa !38
  call void (ptr, i32, ptr, ...) @av_log(ptr noundef %194, i32 noundef 16, ptr noundef @.str.61)
  store i32 -1163346256, ptr %5, align 4
  store i32 1, ptr %13, align 4
  br label %196

195:                                              ; preds = %115
  store i32 0, ptr %5, align 4
  store i32 1, ptr %13, align 4
  br label %196

196:                                              ; preds = %195, %191, %187, %178, %168, %145, %95, %82, %60, %38
  call void @llvm.lifetime.end.p0(i64 4, ptr %10) #11
  %197 = load i32, ptr %5, align 4
  ret i32 %197
}