; Function Attrs: nounwind uwtable
define internal fastcc range(i32 -2147483648, 1) i32 @cbs_h264_write_nal_unit_header(ptr noundef %0, ptr noundef %1, ptr noundef readonly captures(none) %2, i32 noundef range(i32 64, 524323) %3) unnamed_addr #0 {
  %5 = tail call i32 @ff_cbs_write_unsigned(ptr noundef %0, ptr noundef %1, i32 noundef 1, ptr noundef nonnull @.str.53, ptr noundef null, i32 noundef 0, i32 noundef 0, i32 noundef 0) #11
  %6 = icmp sgt i32 %5, -1
  br i1 %6, label %7, label %49

7:                                                ; preds = %4
  %8 = load i8, ptr %2, align 1, !tbaa !209
  %9 = zext i8 %8 to i32
  %10 = tail call i32 @ff_cbs_write_simple_unsigned(ptr noundef %0, ptr noundef %1, i32 noundef 2, ptr noundef nonnull @.str.54, i32 noundef %9) #11
  %11 = icmp sgt i32 %10, -1
  br i1 %11, label %12, label %49

12:                                               ; preds = %7
  %13 = getelementptr inbounds nuw i8, ptr %2, i64 1
  %14 = load i8, ptr %13, align 1, !tbaa !825
  %15 = zext i8 %14 to i32
  %16 = tail call i32 @ff_cbs_write_simple_unsigned(ptr noundef %0, ptr noundef %1, i32 noundef 5, ptr noundef nonnull @.str.55, i32 noundef %15) #11
  %17 = icmp sgt i32 %16, -1
  br i1 %17, label %18, label %49

18:                                               ; preds = %12
  %19 = load i8, ptr %13, align 1, !tbaa !825
  %20 = zext i8 %19 to i32
  %21 = shl nuw i32 1, %20
  %22 = and i32 %21, %3
  %.not = icmp eq i32 %22, 0
  br i1 %.not, label %23, label %25

23:                                               ; preds = %18
  %24 = load ptr, ptr %0, align 8, !tbaa !31
  tail call void (ptr, i32, ptr, ...) @av_log(ptr noundef %24, i32 noundef 16, ptr noundef nonnull @.str.56, i32 noundef %20) #11
  br label %49

25:                                               ; preds = %18
  switch i8 %19, label %49 [
    i8 21, label %32
    i8 14, label %26
    i8 20, label %26
  ]

26:                                               ; preds = %25, %25
  %27 = getelementptr inbounds nuw i8, ptr %2, i64 2
  %28 = load i8, ptr %27, align 1, !tbaa !826
  %29 = zext i8 %28 to i32
  %30 = tail call i32 @ff_cbs_write_simple_unsigned(ptr noundef %0, ptr noundef %1, i32 noundef 1, ptr noundef nonnull @.str.57, i32 noundef %29) #11
  %31 = icmp sgt i32 %30, -1
  br i1 %31, label %38, label %49

32:                                               ; preds = %25
  %33 = getelementptr inbounds nuw i8, ptr %2, i64 3
  %34 = load i8, ptr %33, align 1, !tbaa !827
  %35 = zext i8 %34 to i32
  %36 = tail call i32 @ff_cbs_write_simple_unsigned(ptr noundef %0, ptr noundef %1, i32 noundef 1, ptr noundef nonnull @.str.58, i32 noundef %35) #11
  %37 = icmp sgt i32 %36, -1
  br i1 %37, label %38, label %49

38:                                               ; preds = %32, %26
  %39 = getelementptr inbounds nuw i8, ptr %2, i64 2
  %40 = load i8, ptr %39, align 1, !tbaa !826
  %.not64 = icmp eq i8 %40, 0
  br i1 %.not64, label %43, label %41

41:                                               ; preds = %38
  %42 = load ptr, ptr %0, align 8, !tbaa !31
  tail call void (ptr, i32, ptr, ...) @av_log(ptr noundef %42, i32 noundef 16, ptr noundef nonnull @.str.59) #11
  br label %49

43:                                               ; preds = %38
  %44 = getelementptr inbounds nuw i8, ptr %2, i64 3
  %45 = load i8, ptr %44, align 1, !tbaa !827
  %.not65 = icmp eq i8 %45, 0
  %46 = load ptr, ptr %0, align 8, !tbaa !31
  br i1 %.not65, label %48, label %47

47:                                               ; preds = %43
  tail call void (ptr, i32, ptr, ...) @av_log(ptr noundef %46, i32 noundef 16, ptr noundef nonnull @.str.60) #11
  br label %49

48:                                               ; preds = %43
  tail call void (ptr, i32, ptr, ...) @av_log(ptr noundef %46, i32 noundef 16, ptr noundef nonnull @.str.61) #11
  br label %49

49:                                               ; preds = %25, %26, %32, %12, %7, %4, %48, %47, %41, %23
  %.1 = phi i32 [ -1163346256, %41 ], [ -1163346256, %47 ], [ -1163346256, %48 ], [ %30, %26 ], [ %36, %32 ], [ -1094995529, %23 ], [ %16, %12 ], [ %10, %7 ], [ %5, %4 ], [ 0, %25 ]
  ret i32 %.1
}